; Function Attrs: mustprogress uwtable
define dso_local noundef zeroext i1 @_ZN27cmCMakePresetsGraphInternal18PresetStringHelperERNSt7__cxx1112basic_stringIcSt11char_traitsIcESaIcEEEPKN4Json5ValueEP11cmJSONState(ptr noundef nonnull align 8 dereferenceable(32) %0, ptr noundef %1, ptr noundef %2) #3 personality ptr @__gxx_personality_v0 {
  %4 = alloca ptr, align 8
  %5 = alloca ptr, align 8
  %6 = alloca %"class.std::function.0", align 8
  %7 = alloca %"class.std::__cxx11::basic_string", align 8
  %8 = alloca %"class.std::allocator", align 1
  %9 = load atomic i8, ptr @_ZGVZN27cmCMakePresetsGraphInternal18PresetStringHelperERNSt7__cxx1112basic_stringIcSt11char_traitsIcESaIcEEEPKN4Json5ValueEP11cmJSONStateE6helperB5cxx11 acquire, align 8
  %10 = icmp eq i8 %9, 0
  br i1 %10, label %11, label %26, !prof !23

11:                                               ; preds = %3
  %12 = tail call i32 @__cxa_guard_acquire(ptr nonnull @_ZGVZN27cmCMakePresetsGraphInternal18PresetStringHelperERNSt7__cxx1112basic_stringIcSt11char_traitsIcESaIcEEEPKN4Json5ValueEP11cmJSONStateE6helperB5cxx11) #23
  %.not = icmp eq i32 %12, 0
  br i1 %.not, label %26, label %13

13:                                               ; preds = %11
  %14 = getelementptr inbounds i8, ptr %6, i64 16
  %15 = getelementptr inbounds i8, ptr %6, i64 24
  %16 = getelementptr inbounds i8, ptr %6, i64 8
  store i64 0, ptr %16, align 8
  store ptr @_ZN10JsonErrors14INVALID_STRINGEPKN4Json5ValueEP11cmJSONState, ptr %6, align 8
  store ptr @_ZNSt17_Function_handlerIFvPKN4Json5ValueEP11cmJSONStateEPS6_E9_M_invokeERKSt9_Any_dataOS3_OS5_, ptr %15, align 8
  store ptr @_ZNSt17_Function_handlerIFvPKN4Json5ValueEP11cmJSONStateEPS6_E10_M_managerERSt9_Any_dataRKS9_St18_Manager_operation, ptr %14, align 8
  call void @_ZNSaIcEC1Ev(ptr noundef nonnull align 1 dereferenceable(1) %8) #23
  invoke void @_ZNSt7__cxx1112basic_stringIcSt11char_traitsIcESaIcEEC2IS3_EEPKcRKS3_(ptr noundef nonnull align 8 dereferenceable(32) %7, ptr noundef nonnull @.str, ptr noundef nonnull align 1 dereferenceable(1) %8)
          to label %17 unwind label %31

17:                                               ; preds = %13
  invoke void @_ZN19cmJSONHelperBuilder6StringERKSt8functionIFvPKN4Json5ValueEP11cmJSONStateEERKNSt7__cxx1112basic_stringIcSt11char_traitsIcESaIcEEE(ptr dead_on_unwind nonnull writable sret(%"class.std::function") align 8 @_ZZN27cmCMakePresetsGraphInternal18PresetStringHelperERNSt7__cxx1112basic_stringIcSt11char_traitsIcESaIcEEEPKN4Json5ValueEP11cmJSONStateE6helperB5cxx11, ptr noundef nonnull align 8 dereferenceable(32) %6, ptr noundef nonnull align 8 dereferenceable(32) %7)
          to label %18 unwind label %33

18:                                               ; preds = %17
  call void @_ZNSt7__cxx1112basic_stringIcSt11char_traitsIcESaIcEED1Ev(ptr noundef nonnull align 8 dereferenceable(32) %7) #23
  call void @_ZNSaIcED1Ev(ptr noundef nonnull align 1 dereferenceable(1) %8) #23
  %19 = load ptr, ptr %14, align 8
  %.not.i.i = icmp eq ptr %19, null
  br i1 %.not.i.i, label %_ZNSt8functionIFvPKN4Json5ValueEP11cmJSONStateEED2Ev.exit, label %20

20:                                               ; preds = %18
  %21 = invoke noundef zeroext i1 %19(ptr noundef nonnull align 8 dereferenceable(16) %6, ptr noundef nonnull align 8 dereferenceable(16) %6, i32 noundef 3)
          to label %_ZNSt8functionIFvPKN4Json5ValueEP11cmJSONStateEED2Ev.exit unwind label %22

22:                                               ; preds = %20
  %23 = landingpad { ptr, i32 }
          catch ptr null
  %24 = extractvalue { ptr, i32 } %23, 0
  call void @__clang_call_terminate(ptr %24) #22
  unreachable

_ZNSt8functionIFvPKN4Json5ValueEP11cmJSONStateEED2Ev.exit: ; preds = %18, %20
  %25 = call i32 @__cxa_atexit(ptr nonnull @_ZNSt8functionIFbRNSt7__cxx1112basic_stringIcSt11char_traitsIcESaIcEEEPKN4Json5ValueEP11cmJSONStateEED2Ev, ptr nonnull @_ZZN27cmCMakePresetsGraphInternal18PresetStringHelperERNSt7__cxx1112basic_stringIcSt11char_traitsIcESaIcEEEPKN4Json5ValueEP11cmJSONStateE6helperB5cxx11, ptr nonnull @__dso_handle) #23
  call void @__cxa_guard_release(ptr nonnull @_ZGVZN27cmCMakePresetsGraphInternal18PresetStringHelperERNSt7__cxx1112basic_stringIcSt11char_traitsIcESaIcEEEPKN4Json5ValueEP11cmJSONStateE6helperB5cxx11) #23
  br label %26

26:                                               ; preds = %_ZNSt8functionIFvPKN4Json5ValueEP11cmJSONStateEED2Ev.exit, %11, %3
  call void @llvm.lifetime.start.p0(i64 8, ptr nonnull %4)
  call void @llvm.lifetime.start.p0(i64 8, ptr nonnull %5)
  store ptr %1, ptr %4, align 8
  store ptr %2, ptr %5, align 8
  %27 = load ptr, ptr getelementptr inbounds (%"class.std::function", ptr @_ZZN27cmCMakePresetsGraphInternal18PresetStringHelperERNSt7__cxx1112basic_stringIcSt11char_traitsIcESaIcEEEPKN4Json5ValueEP11cmJSONStateE6helperB5cxx11, i64 0, i32 0, i32 1), align 8
  %.not.i.i6 = icmp eq ptr %27, null
  br i1 %.not.i.i6, label %28, label %_ZNKSt8functionIFbRNSt7__cxx1112basic_stringIcSt11char_traitsIcESaIcEEEPKN4Json5ValueEP11cmJSONStateEEclES6_SA_SC_.exit

28:                                               ; preds = %26
  call void @_ZSt25__throw_bad_function_callv() #24
  unreachable

_ZNKSt8functionIFbRNSt7__cxx1112basic_stringIcSt11char_traitsIcESaIcEEEPKN4Json5ValueEP11cmJSONStateEEclES6_SA_SC_.exit: ; preds = %26
  %29 = load ptr, ptr getelementptr inbounds (%"class.std::function", ptr @_ZZN27cmCMakePresetsGraphInternal18PresetStringHelperERNSt7__cxx1112basic_stringIcSt11char_traitsIcESaIcEEEPKN4Json5ValueEP11cmJSONStateE6helperB5cxx11, i64 0, i32 1), align 8
  %30 = call noundef zeroext i1 %29(ptr noundef nonnull align 8 dereferenceable(16) @_ZZN27cmCMakePresetsGraphInternal18PresetStringHelperERNSt7__cxx1112basic_stringIcSt11char_traitsIcESaIcEEEPKN4Json5ValueEP11cmJSONStateE6helperB5cxx11, ptr noundef nonnull align 8 dereferenceable(32) %0, ptr noundef nonnull align 8 dereferenceable(8) %4, ptr noundef nonnull align 8 dereferenceable(8) %5)
  call void @llvm.lifetime.end.p0(i64 8, ptr nonnull %4)
  call void @llvm.lifetime.end.p0(i64 8, ptr nonnull %5)
  ret i1 %30

31:                                               ; preds = %13
  %32 = landingpad { ptr, i32 }
          cleanup
  br label %35

33:                                               ; preds = %17
  %34 = landingpad { ptr, i32 }
          cleanup
  call void @_ZNSt7__cxx1112basic_stringIcSt11char_traitsIcESaIcEED1Ev(ptr noundef nonnull align 8 dereferenceable(32) %7) #23
  br label %35

35:                                               ; preds = %33, %31
  %.pn = phi { ptr, i32 } [ %34, %33 ], [ %32, %31 ]
  call void @_ZNSaIcED1Ev(ptr noundef nonnull align 1 dereferenceable(1) %8) #23
  %36 = load ptr, ptr %14, align 8
  %.not.i.i7 = icmp eq ptr %36, null
  br i1 %.not.i.i7, label %_ZNSt8functionIFvPKN4Json5ValueEP11cmJSONStateEED2Ev.exit8, label %37

37:                                               ; preds = %35
  %38 = invoke noundef zeroext i1 %36(ptr noundef nonnull align 8 dereferenceable(16) %6, ptr noundef nonnull align 8 dereferenceable(16) %6, i32 noundef 3)
          to label %_ZNSt8functionIFvPKN4Json5ValueEP11cmJSONStateEED2Ev.exit8 unwind label %39

39:                                               ; preds = %37
  %40 = landingpad { ptr, i32 }
          catch ptr null
  %41 = extractvalue { ptr, i32 } %40, 0
  call void @__clang_call_terminate(ptr %41) #22
  unreachable

_ZNSt8functionIFvPKN4Json5ValueEP11cmJSONStateEED2Ev.exit8: ; preds = %35, %37
  call void @__cxa_guard_abort(ptr nonnull @_ZGVZN27cmCMakePresetsGraphInternal18PresetStringHelperERNSt7__cxx1112basic_stringIcSt11char_traitsIcESaIcEEEPKN4Json5ValueEP11cmJSONStateE6helperB5cxx11) #23
  resume { ptr, i32 } %.pn
}